target datalayout = "e-m:e-p270:32:32-p271:32:32-p272:64:64-i64:64-i128:128-f80:128-n8:16:32:64-S128"
target triple = "x86_64-pc-linux-gnu"

@proto_p1 = internal global i32 0, align 4
@.str.113 = private unnamed_addr constant [3 x i8] c"P1\00", align 1
@.str.327 = private unnamed_addr constant [7 x i8] c"ORName\00", align 1
@.str.329 = private unnamed_addr constant [10 x i8] c"ORAddress\00", align 1
@.str.1437 = private unnamed_addr constant [31 x i8] c"X.411 Message Transfer Service\00", align 1
@.str.1438 = private unnamed_addr constant [3 x i8] c"p1\00", align 1
@p1_handle = internal global ptr null, align 8
@.str.1439 = private unnamed_addr constant [29 x i8] c"X.411 Message Access Service\00", align 1
@.str.1440 = private unnamed_addr constant [3 x i8] c"P3\00", align 1
@.str.1441 = private unnamed_addr constant [3 x i8] c"p3\00", align 1
@proto_p3 = internal global i32 0, align 4
@.str.1442 = private unnamed_addr constant [13 x i8] c"p1.extension\00", align 1
@.str.1443 = private unnamed_addr constant [13 x i8] c"P1-EXTENSION\00", align 1
@p1_extension_dissector_table = internal global ptr null, align 8
@.str.1444 = private unnamed_addr constant [23 x i8] c"p1.extension-attribute\00", align 1
@.str.1445 = private unnamed_addr constant [23 x i8] c"P1-EXTENSION-ATTRIBUTE\00", align 1
@p1_extension_attribute_dissector_table = internal global ptr null, align 8
@.str.1446 = private unnamed_addr constant [13 x i8] c"p1.tokendata\00", align 1
@.str.1447 = private unnamed_addr constant [13 x i8] c"P1-TOKENDATA\00", align 1
@p1_tokendata_dissector_table = internal global ptr null, align 8
@.str.1448 = private unnamed_addr constant [10 x i8] c"OSI/X.400\00", align 1
@.str.1449 = private unnamed_addr constant [5 x i8] c"x411\00", align 1
@.str.1450 = private unnamed_addr constant [9 x i8] c"tcp.port\00", align 1
@.str.1451 = private unnamed_addr constant [14 x i8] c"tcp_port_info\00", align 1
@.str.1452 = private unnamed_addr constant [173 x i8] c"The TCP ports used by the P1 protocol should be added to the TPKT preference \22TPKT TCP ports\22, or by selecting \22TPKT\22 as the \22Transport\22 protocol in the \22Decode As\22 dialog.\00", align 1
@.str.1453 = private unnamed_addr constant [41 x i8] c"P1 TCP Port preference moved information\00", align 1
@.str.1454 = private unnamed_addr constant [11 x i8] c"P1 Message\00", align 1

; Function Attrs: null_pointer_is_valid sspstrong uwtable
define hidden void @proto_register_p1() #0 {
  %1 = alloca ptr, align 8
  %2 = alloca ptr, align 8
  call void @llvm.lifetime.start.p0(i64 8, ptr %1) #5
  call void @llvm.lifetime.start.p0(i64 8, ptr %2) #5
  %3 = call i32 @proto_register_protocol(ptr noundef @.str.1437, ptr noundef @.str.113, ptr noundef @.str.1438)
  store i32 %3, ptr @proto_p1, align 4
  %4 = load i32, ptr @proto_p1, align 4
  %5 = call ptr @register_dissector(ptr noundef @.str.1438, ptr noundef @dissect_p1, i32 noundef %4)
  store ptr %5, ptr @p1_handle, align 8
  %6 = call i32 @proto_register_protocol(ptr noundef @.str.1439, ptr noundef @.str.1440, ptr noundef @.str.1441)
  store i32 %6, ptr @proto_p3, align 4
  %7 = load i32, ptr @proto_p1, align 4
  call void @proto_register_field_array(i32 noundef %7, ptr noundef @proto_register_p1.hf, i32 noundef 620)
  call void @proto_register_subtree_array(ptr noundef @proto_register_p1.ett, i32 noundef 187)
  %8 = load i32, ptr @proto_p1, align 4
  %9 = call ptr @expert_register_protocol(i32 noundef %8)
  store ptr %9, ptr %1, align 8
  %10 = load ptr, ptr %1, align 8
  call void @expert_register_field_array(ptr noundef %10, ptr noundef @proto_register_p1.ei, i32 noundef 6)
  %11 = load i32, ptr @proto_p1, align 4
  %12 = call ptr @register_dissector_table(ptr noundef @.str.1442, ptr noundef @.str.1443, i32 noundef %11, i32 noundef 7, i32 noundef 1)
  store ptr %12, ptr @p1_extension_dissector_table, align 8
  %13 = load i32, ptr @proto_p1, align 4
  %14 = call ptr @register_dissector_table(ptr noundef @.str.1444, ptr noundef @.str.1445, i32 noundef %13, i32 noundef 7, i32 noundef 1)
  store ptr %14, ptr @p1_extension_attribute_dissector_table, align 8
  %15 = load i32, ptr @proto_p1, align 4
  %16 = call ptr @register_dissector_table(ptr noundef @.str.1446, ptr noundef @.str.1447, i32 noundef %15, i32 noundef 7, i32 noundef 1)
  store ptr %16, ptr @p1_tokendata_dissector_table, align 8
  %17 = load i32, ptr @proto_p1, align 4
  %18 = call ptr @prefs_register_protocol_subtree(ptr noundef @.str.1448, i32 noundef %17, ptr noundef null)
  store ptr %18, ptr %2, align 8
  %19 = load ptr, ptr %2, align 8
  call void @prefs_register_module_alias(ptr noundef @.str.1449, ptr noundef %19)
  %20 = load ptr, ptr %2, align 8
  call void @prefs_register_obsolete_preference(ptr noundef %20, ptr noundef @.str.1450)
  %21 = load ptr, ptr %2, align 8
  call void @prefs_register_static_text_preference(ptr noundef %21, ptr noundef @.str.1451, ptr noundef @.str.1452, ptr noundef @.str.1453)
  %22 = load i32, ptr @proto_p1, align 4
  call void @register_ber_syntax_dissector(ptr noundef @.str.1454, i32 noundef %22, ptr noundef @dissect_p1_mts_apdu)
  %23 = load i32, ptr @proto_p1, align 4
  call void @register_ber_syntax_dissector(ptr noundef @.str.329, i32 noundef %23, ptr noundef @dissect_ORAddress_PDU)
  %24 = load i32, ptr @proto_p1, align 4
  call void @register_ber_syntax_dissector(ptr noundef @.str.327, i32 noundef %24, ptr noundef @dissect_ORName_PDU)
  call void @llvm.lifetime.end.p0(i64 8, ptr %2) #5
  call void @llvm.lifetime.end.p0(i64 8, ptr %1) #5
  ret void
}