; Function Attrs: null_pointer_is_valid sspstrong uwtable
define hidden void @proto_register_p1() local_unnamed_addr #0 {
  %1 = tail call i32 @proto_register_protocol(ptr noundef nonnull @.str.1437, ptr noundef nonnull @.str.113, ptr noundef nonnull @.str.1438)
  store i32 %1, ptr @proto_p1, align 4
  %2 = tail call ptr @register_dissector(ptr noundef nonnull @.str.1438, ptr noundef nonnull @dissect_p1, i32 noundef %1)
  store ptr %2, ptr @p1_handle, align 8
  %3 = tail call i32 @proto_register_protocol(ptr noundef nonnull @.str.1439, ptr noundef nonnull @.str.1440, ptr noundef nonnull @.str.1441)
  store i32 %3, ptr @proto_p3, align 4
  %4 = load i32, ptr @proto_p1, align 4
  tail call void @proto_register_field_array(i32 noundef %4, ptr noundef nonnull @proto_register_p1.hf, i32 noundef 620)
  tail call void @proto_register_subtree_array(ptr noundef nonnull @proto_register_p1.ett, i32 noundef 187)
  %5 = load i32, ptr @proto_p1, align 4
  %6 = tail call ptr @expert_register_protocol(i32 noundef %5)
  tail call void @expert_register_field_array(ptr noundef %6, ptr noundef nonnull @proto_register_p1.ei, i32 noundef 6)
  %7 = load i32, ptr @proto_p1, align 4
  %8 = tail call ptr @register_dissector_table(ptr noundef nonnull @.str.1442, ptr noundef nonnull @.str.1443, i32 noundef %7, i32 noundef 7, i32 noundef 1)
  store ptr %8, ptr @p1_extension_dissector_table, align 8
  %9 = load i32, ptr @proto_p1, align 4
  %10 = tail call ptr @register_dissector_table(ptr noundef nonnull @.str.1444, ptr noundef nonnull @.str.1445, i32 noundef %9, i32 noundef 7, i32 noundef 1)
  store ptr %10, ptr @p1_extension_attribute_dissector_table, align 8
  %11 = load i32, ptr @proto_p1, align 4
  %12 = tail call ptr @register_dissector_table(ptr noundef nonnull @.str.1446, ptr noundef nonnull @.str.1447, i32 noundef %11, i32 noundef 7, i32 noundef 1)
  store ptr %12, ptr @p1_tokendata_dissector_table, align 8
  %13 = load i32, ptr @proto_p1, align 4
  %14 = tail call ptr @prefs_register_protocol_subtree(ptr noundef nonnull @.str.1448, i32 noundef %13, ptr noundef null)
  tail call void @prefs_register_module_alias(ptr noundef nonnull @.str.1449, ptr noundef %14)
  tail call void @prefs_register_obsolete_preference(ptr noundef %14, ptr noundef nonnull @.str.1450)
  tail call void @prefs_register_static_text_preference(ptr noundef %14, ptr noundef nonnull @.str.1451, ptr noundef nonnull @.str.1452, ptr noundef nonnull @.str.1453)
  %15 = load i32, ptr @proto_p1, align 4
  tail call void @register_ber_syntax_dissector(ptr noundef nonnull @.str.1454, i32 noundef %15, ptr noundef nonnull @dissect_p1_mts_apdu)
  %16 = load i32, ptr @proto_p1, align 4
  tail call void @register_ber_syntax_dissector(ptr noundef nonnull @.str.329, i32 noundef %16, ptr noundef nonnull @dissect_ORAddress_PDU)
  %17 = load i32, ptr @proto_p1, align 4
  tail call void @register_ber_syntax_dissector(ptr noundef nonnull @.str.327, i32 noundef %17, ptr noundef nonnull @dissect_ORName_PDU)
  ret void
}